target datalayout = "e-m:e-p270:32:32-p271:32:32-p272:64:64-i64:64-i128:128-f80:128-n8:16:32:64-S128"
target triple = "x86_64-unknown-linux-gnu"

%"class.EA::StdC::Callback" = type { ptr, i64, i64, ptr, ptr, ptr, i32, %"class.EA::Thread::AtomicInt", i8, i8, i64, i64 }
%"class.EA::Thread::AtomicInt" = type { %"struct.std::atomic" }
%"struct.std::atomic" = type { %"struct.std::__atomic_base" }
%"struct.std::__atomic_base" = type { i32 }

@_ZTVN2EA4StdC8CallbackE = dso_local unnamed_addr constant { [4 x ptr] } { [4 x ptr] [ptr null, ptr @_ZTIN2EA4StdC8CallbackE, ptr @_ZN2EA4StdC8CallbackD1Ev, ptr @_ZN2EA4StdC8CallbackD0Ev] }, align 8

; Function Attrs: mustprogress uwtable
define dso_local void @_ZN2EA4StdC8Callback4CallEmm(ptr noundef nonnull align 8 dereferenceable(80) %this, i64 noundef %absoluteValue, i64 noundef %deltaValue) #2 align 2 {
entry:
  %this.addr = alloca ptr, align 8
  %absoluteValue.addr = alloca i64, align 8
  %deltaValue.addr = alloca i64, align 8
  store ptr %this, ptr %this.addr, align 8
  store i64 %absoluteValue, ptr %absoluteValue.addr, align 8
  store i64 %deltaValue, ptr %deltaValue.addr, align 8
  %this1 = load ptr, ptr %this.addr, align 8
  %mpFunction = getelementptr inbounds %"class.EA::StdC::Callback", ptr %this1, i32 0, i32 4
  %0 = load ptr, ptr %mpFunction, align 8
  %tobool = icmp ne ptr %0, null
  br i1 %tobool, label %if.then, label %if.end

if.then:                                          ; preds = %entry
  %mpFunction2 = getelementptr inbounds %"class.EA::StdC::Callback", ptr %this1, i32 0, i32 4
  %1 = load ptr, ptr %mpFunction2, align 8
  %mpFunctionArg = getelementptr inbounds %"class.EA::StdC::Callback", ptr %this1, i32 0, i32 5
  %2 = load ptr, ptr %mpFunctionArg, align 8
  %3 = load i64, ptr %absoluteValue.addr, align 8
  %4 = load i64, ptr %deltaValue.addr, align 8
  call void %1(ptr noundef %this1, ptr noundef %2, i64 noundef %3, i64 noundef %4)
  br label %if.end

if.end:                                           ; preds = %if.then, %entry
  ret void
}

; Function Attrs: mustprogress uwtable
define dso_local void @_ZN2EA4StdC8Callback14AddRefCallbackEv(ptr noundef nonnull align 8 dereferenceable(80) %this) #2 align 2 {
entry:
  %this.addr = alloca ptr, align 8
  store ptr %this, ptr %this.addr, align 8
  %this1 = load ptr, ptr %this.addr, align 8
  call void @_ZN2EA4StdC8Callback4CallEmm(ptr noundef nonnull align 8 dereferenceable(80) %this1, i64 noundef 0, i64 noundef 0)
  ret void
}

; Function Attrs: mustprogress nounwind uwtable
define linkonce_odr dso_local noundef i32 @_ZN2EA6Thread9AtomicIntIiE8SetValueEi(ptr noundef nonnull align 4 dereferenceable(4) %this, i32 noundef %n) #1 comdat align 2 {
entry:
  %this.addr.i = alloca ptr, align 8
  %__i.addr.i = alloca i32, align 4
  %__m.addr.i = alloca i32, align 4
  %.atomictmp.i = alloca i32, align 4
  %atomic-temp.i = alloca i32, align 4
  %this.addr = alloca ptr, align 8
  %n.addr = alloca i32, align 4
  store ptr %this, ptr %this.addr, align 8
  store i32 %n, ptr %n.addr, align 4
  %this1 = load ptr, ptr %this.addr, align 8
  %mValue = getelementptr inbounds %"class.EA::Thread::AtomicInt", ptr %this1, i32 0, i32 0
  %0 = load i32, ptr %n.addr, align 4
  store ptr %mValue, ptr %this.addr.i, align 8
  store i32 %0, ptr %__i.addr.i, align 4
  store i32 5, ptr %__m.addr.i, align 4
  %this1.i = load ptr, ptr %this.addr.i, align 8
  %1 = load i32, ptr %__m.addr.i, align 4
  %2 = load i32, ptr %__i.addr.i, align 4
  store i32 %2, ptr %.atomictmp.i, align 4
  switch i32 %1, label %monotonic.i [
    i32 1, label %acquire.i
    i32 2, label %acquire.i
    i32 3, label %release.i
    i32 4, label %acqrel.i
    i32 5, label %seqcst.i
  ]

monotonic.i:                                      ; preds = %entry
  %3 = load i32, ptr %.atomictmp.i, align 4
  %4 = atomicrmw xchg ptr %this1.i, i32 %3 monotonic, align 4
  store i32 %4, ptr %atomic-temp.i, align 4
  br label %_ZNSt13__atomic_baseIiE8exchangeEiSt12memory_order.exit

acquire.i:                                        ; preds = %entry, %entry
  %5 = load i32, ptr %.atomictmp.i, align 4
  %6 = atomicrmw xchg ptr %this1.i, i32 %5 acquire, align 4
  store i32 %6, ptr %atomic-temp.i, align 4
  br label %_ZNSt13__atomic_baseIiE8exchangeEiSt12memory_order.exit

release.i:                                        ; preds = %entry
  %7 = load i32, ptr %.atomictmp.i, align 4
  %8 = atomicrmw xchg ptr %this1.i, i32 %7 release, align 4
  store i32 %8, ptr %atomic-temp.i, align 4
  br label %_ZNSt13__atomic_baseIiE8exchangeEiSt12memory_order.exit

acqrel.i:                                         ; preds = %entry
  %9 = load i32, ptr %.atomictmp.i, align 4
  %10 = atomicrmw xchg ptr %this1.i, i32 %9 acq_rel, align 4
  store i32 %10, ptr %atomic-temp.i, align 4
  br label %_ZNSt13__atomic_baseIiE8exchangeEiSt12memory_order.exit

seqcst.i:                                         ; preds = %entry
  %11 = load i32, ptr %.atomictmp.i, align 4
  %12 = atomicrmw xchg ptr %this1.i, i32 %11 seq_cst, align 4
  store i32 %12, ptr %atomic-temp.i, align 4
  br label %_ZNSt13__atomic_baseIiE8exchangeEiSt12memory_order.exit

_ZNSt13__atomic_baseIiE8exchangeEiSt12memory_order.exit: ; preds = %seqcst.i, %acqrel.i, %release.i, %acquire.i, %monotonic.i
  %13 = load i32, ptr %atomic-temp.i, align 4
  ret i32 %13
}

; Function Attrs: mustprogress uwtable
define dso_local noundef zeroext i1 @_ZN2EA4StdC8Callback15SetFunctionInfoEPFvPS1_PvmmES3_b(ptr noundef nonnull align 8 dereferenceable(80) %this, ptr noundef %pCallbackFunction, ptr noundef %pCallbackArgument, i1 noundef zeroext %bEnableRefCount) #2 align 2 {
entry:
  %this.addr = alloca ptr, align 8
  %pCallbackFunction.addr = alloca ptr, align 8
  %pCallbackArgument.addr = alloca ptr, align 8
  %bEnableRefCount.addr = alloca i8, align 1
  store ptr %this, ptr %this.addr, align 8
  store ptr %pCallbackFunction, ptr %pCallbackFunction.addr, align 8
  store ptr %pCallbackArgument, ptr %pCallbackArgument.addr, align 8
  %frombool = zext i1 %bEnableRefCount to i8
  store i8 %frombool, ptr %bEnableRefCount.addr, align 1
  %this1 = load ptr, ptr %this.addr, align 8
  %0 = load ptr, ptr %pCallbackFunction.addr, align 8
  %tobool = icmp ne ptr %0, null
  br i1 %tobool, label %if.then, label %if.else

if.then:                                          ; preds = %entry
  %1 = load ptr, ptr %pCallbackFunction.addr, align 8
  %mpFunction = getelementptr inbounds %"class.EA::StdC::Callback", ptr %this1, i32 0, i32 4
  store ptr %1, ptr %mpFunction, align 8
  %2 = load ptr, ptr %pCallbackArgument.addr, align 8
  %mpFunctionArg = getelementptr inbounds %"class.EA::StdC::Callback", ptr %this1, i32 0, i32 5
  store ptr %2, ptr %mpFunctionArg, align 8
  br label %if.end

if.else:                                          ; preds = %entry
  %mpFunction2 = getelementptr inbounds %"class.EA::StdC::Callback", ptr %this1, i32 0, i32 4
  store ptr @_ZN2EA4StdCL15DefaultCallbackEPNS0_8CallbackEPvmm, ptr %mpFunction2, align 8
  %mpFunctionArg3 = getelementptr inbounds %"class.EA::StdC::Callback", ptr %this1, i32 0, i32 5
  store ptr %this1, ptr %mpFunctionArg3, align 8
  br label %if.end

if.end:                                           ; preds = %if.else, %if.then
  %3 = load i8, ptr %bEnableRefCount.addr, align 1
  %tobool4 = trunc i8 %3 to i1
  br i1 %tobool4, label %if.then5, label %if.end6

if.then5:                                         ; preds = %if.end
  %mbEnableRefCount = getelementptr inbounds %"class.EA::StdC::Callback", ptr %this1, i32 0, i32 9
  store i8 1, ptr %mbEnableRefCount, align 1
  call void @_ZN2EA4StdC8Callback14AddRefCallbackEv(ptr noundef nonnull align 8 dereferenceable(80) %this1)
  br label %if.end6

if.end6:                                          ; preds = %if.then5, %if.end
  ret i1 true
}

; Function Attrs: mustprogress uwtable
define linkonce_odr dso_local void @_ZN2EA6Thread9AtomicIntIiEC2Ei(ptr noundef nonnull align 4 dereferenceable(4) %this, i32 noundef %n) unnamed_addr #2 comdat align 2 {
entry:
  %this.addr = alloca ptr, align 8
  %n.addr = alloca i32, align 4
  store ptr %this, ptr %this.addr, align 8
  store i32 %n, ptr %n.addr, align 4
  %this1 = load ptr, ptr %this.addr, align 8
  %0 = load i32, ptr %n.addr, align 4
  %call = call noundef i32 @_ZN2EA6Thread9AtomicIntIiE8SetValueEi(ptr noundef nonnull align 4 dereferenceable(4) %this1, i32 noundef %0)
  ret void
}

; Function Attrs: mustprogress uwtable
define dso_local void @_ZN2EA4StdC8CallbackC2EPFvPS1_PvmmES3_mmNS1_4TypeEb(ptr noundef nonnull align 8 dereferenceable(80) %this, ptr noundef %pCallbackFunc, ptr noundef %pCallbackFuncArg, i64 noundef %period, i64 noundef %precision, i32 noundef %type, i1 noundef zeroext %bEnableRefCount) unnamed_addr #2 align 2 {
entry:
  %this.addr = alloca ptr, align 8
  %pCallbackFunc.addr = alloca ptr, align 8
  %pCallbackFuncArg.addr = alloca ptr, align 8
  %period.addr = alloca i64, align 8
  %precision.addr = alloca i64, align 8
  %type.addr = alloca i32, align 4
  %bEnableRefCount.addr = alloca i8, align 1
  store ptr %this, ptr %this.addr, align 8
  store ptr %pCallbackFunc, ptr %pCallbackFunc.addr, align 8
  store ptr %pCallbackFuncArg, ptr %pCallbackFuncArg.addr, align 8
  store i64 %period, ptr %period.addr, align 8
  store i64 %precision, ptr %precision.addr, align 8
  store i32 %type, ptr %type.addr, align 4
  %frombool = zext i1 %bEnableRefCount to i8
  store i8 %frombool, ptr %bEnableRefCount.addr, align 1
  %this1 = load ptr, ptr %this.addr, align 8
  store ptr getelementptr inbounds ({ [4 x ptr] }, ptr @_ZTVN2EA4StdC8CallbackE, i32 0, i32 0, i32 2), ptr %this1, align 8
  %mPeriod = getelementptr inbounds %"class.EA::StdC::Callback", ptr %this1, i32 0, i32 1
  %0 = load i64, ptr %period.addr, align 8
  store i64 %0, ptr %mPeriod, align 8
  %mPrecision = getelementptr inbounds %"class.EA::StdC::Callback", ptr %this1, i32 0, i32 2
  %1 = load i64, ptr %precision.addr, align 8
  store i64 %1, ptr %mPrecision, align 8
  %mpCallbackManager = getelementptr inbounds %"class.EA::StdC::Callback", ptr %this1, i32 0, i32 3
  store ptr null, ptr %mpCallbackManager, align 8
  %mpFunction = getelementptr inbounds %"class.EA::StdC::Callback", ptr %this1, i32 0, i32 4
  store ptr null, ptr %mpFunction, align 8
  %mpFunctionArg = getelementptr inbounds %"class.EA::StdC::Callback", ptr %this1, i32 0, i32 5
  store ptr null, ptr %mpFunctionArg, align 8
  %mType = getelementptr inbounds %"class.EA::StdC::Callback", ptr %this1, i32 0, i32 6
  %2 = load i32, ptr %type.addr, align 4
  store i32 %2, ptr %mType, align 8
  %mbStarted = getelementptr inbounds %"class.EA::StdC::Callback", ptr %this1, i32 0, i32 7
  call void @_ZN2EA6Thread9AtomicIntIiEC2Ei(ptr noundef nonnull align 4 dereferenceable(4) %mbStarted, i32 noundef 0)
  %mbOneShot = getelementptr inbounds %"class.EA::StdC::Callback", ptr %this1, i32 0, i32 8
  store i8 0, ptr %mbOneShot, align 8
  %mbEnableRefCount = getelementptr inbounds %"class.EA::StdC::Callback", ptr %this1, i32 0, i32 9
  store i8 0, ptr %mbEnableRefCount, align 1
  %mNextCallbackEvent = getelementptr inbounds %"class.EA::StdC::Callback", ptr %this1, i32 0, i32 10
  store i64 0, ptr %mNextCallbackEvent, align 8
  %mLastCallbackEvent = getelementptr inbounds %"class.EA::StdC::Callback", ptr %this1, i32 0, i32 11
  store i64 0, ptr %mLastCallbackEvent, align 8
  %3 = load ptr, ptr %pCallbackFunc.addr, align 8
  %4 = load ptr, ptr %pCallbackFuncArg.addr, align 8
  %5 = load i8, ptr %bEnableRefCount.addr, align 1
  %tobool = trunc i8 %5 to i1
  %call = call noundef zeroext i1 @_ZN2EA4StdC8Callback15SetFunctionInfoEPFvPS1_PvmmES3_b(ptr noundef nonnull align 8 dereferenceable(80) %this1, ptr noundef %3, ptr noundef %4, i1 noundef zeroext %tobool)
  ret void
}