; Function Attrs: mustprogress uwtable
define dso_local void @_ZN2EA4StdC8CallbackC2EPFvPS1_PvmmES3_mmNS1_4TypeEb(ptr noundef nonnull align 8 dereferenceable(80) %this, ptr noundef %pCallbackFunc, ptr noundef %pCallbackFuncArg, i64 noundef %period, i64 noundef %precision, i32 noundef %type, i1 noundef zeroext %bEnableRefCount) unnamed_addr #1 align 2 {
entry:
  store ptr getelementptr inbounds ({ [4 x ptr] }, ptr @_ZTVN2EA4StdC8CallbackE, i64 0, i32 0, i64 2), ptr %this, align 8
  %mPeriod = getelementptr inbounds i8, ptr %this, i64 8
  store i64 %period, ptr %mPeriod, align 8
  %mPrecision = getelementptr inbounds i8, ptr %this, i64 16
  store i64 %precision, ptr %mPrecision, align 8
  %mpCallbackManager = getelementptr inbounds i8, ptr %this, i64 24
  %mpFunction = getelementptr inbounds i8, ptr %this, i64 32
  %mpFunctionArg = getelementptr inbounds i8, ptr %this, i64 40
  %mType = getelementptr inbounds i8, ptr %this, i64 48
  tail call void @llvm.memset.p0.i64(ptr noundef nonnull align 8 dereferenceable(24) %mpCallbackManager, i8 0, i64 24, i1 false)
  store i32 %type, ptr %mType, align 8
  %mbStarted = getelementptr inbounds i8, ptr %this, i64 52
  %0 = atomicrmw xchg ptr %mbStarted, i32 0 seq_cst, align 4
  %mbOneShot = getelementptr inbounds i8, ptr %this, i64 56
  store i8 0, ptr %mbOneShot, align 8
  %mbEnableRefCount = getelementptr inbounds i8, ptr %this, i64 57
  store i8 0, ptr %mbEnableRefCount, align 1
  %mNextCallbackEvent = getelementptr inbounds i8, ptr %this, i64 64
  %tobool.not.i = icmp eq ptr %pCallbackFunc, null
  %spec.select.i = select i1 %tobool.not.i, ptr @_ZN2EA4StdCL15DefaultCallbackEPNS0_8CallbackEPvmm, ptr %pCallbackFunc
  %spec.select2.i = select i1 %tobool.not.i, ptr %this, ptr %pCallbackFuncArg
  tail call void @llvm.memset.p0.i64(ptr noundef nonnull align 8 dereferenceable(16) %mNextCallbackEvent, i8 0, i64 16, i1 false)
  store ptr %spec.select.i, ptr %mpFunction, align 8
  store ptr %spec.select2.i, ptr %mpFunctionArg, align 8
  br i1 %bEnableRefCount, label %if.then.i.i.i, label %_ZN2EA4StdC8Callback15SetFunctionInfoEPFvPS1_PvmmES3_b.exit

if.then.i.i.i:                                    ; preds = %entry
  store i8 1, ptr %mbEnableRefCount, align 1
  tail call void %spec.select.i(ptr noundef nonnull %this, ptr noundef %spec.select2.i, i64 noundef 0, i64 noundef 0)
  br label %_ZN2EA4StdC8Callback15SetFunctionInfoEPFvPS1_PvmmES3_b.exit

_ZN2EA4StdC8Callback15SetFunctionInfoEPFvPS1_PvmmES3_b.exit: ; preds = %entry, %if.then.i.i.i
  ret void
}